Certificate:
    Data:
        Version: 3 (0x2)
        Serial Number: 1 (0x1)
    Signature Algorithm: sha1WithRSAEncryption
        Issuer: C=ES, ST=Murcia, O=UMU, OU=SSTT, CN=ca
        Validity
            Not Before: Jan 17 18:04:00 2016 GMT
            Not After : Jan 16 18:04:00 2017 GMT
        Subject: C=ES, ST=Murcia, O=UMU, OU=SSTT, CN=www.st.um
        Subject Public Key Info:
            Public Key Algorithm: rsaEncryption
                Public-Key: (512 bit)
                Modulus:
                    00:d8:aa:8c:02:a4:8b:94:bf:a3:c9:77:e0:7c:ac:
                    fa:de:75:6b:d8:12:24:27:b4:1b:d9:58:a8:c7:ea:
                    e7:5e:f6:f3:e2:0f:2a:bd:fe:40:9e:01:be:85:b8:
                    fa:90:67:3a:2a:36:b3:fc:c6:a5:70:f4:37:8c:e9:
                    45:26:fe:51:27
                Exponent: 65537 (0x10001)
        X509v3 extensions:
            X509v3 Basic Constraints: 
                CA:FALSE
            Netscape Comment: 
                OpenSSL Generated Certificate
            X509v3 Subject Key Identifier: 
                31:9A:7A:B5:A1:3E:C5:2F:75:8A:33:FF:FE:38:41:C1:8F:CB:3E:2A
            X509v3 Authority Key Identifier: 
                keyid:A4:94:F9:CF:38:72:02:2B:D7:0B:63:FD:0C:B4:8D:F6:78:AD:82:F4

    Signature Algorithm: sha1WithRSAEncryption
         83:a2:53:72:1b:7a:7c:da:88:a8:df:e9:51:c7:57:7d:fe:2f:
         e4:6e:c4:a3:e6:0f:86:a6:cb:95:20:cd:8c:3c:4c:fb:54:6c:
         6d:67:f7:43:bf:bd:35:2f:34:1a:e8:6e:73:19:05:f5:0c:45:
         e5:14:56:e2:0b:99:61:4c:6c:88:40:73:d2:53:9c:04:6a:4c:
         66:cb:00:42:bb:5f:89:4e:8c:86:f2:11:24:d2:cd:f1:cc:b8:
         75:6e:71:03:8c:0f:4f:58:3a:c2:6b:f8:cd:01:62:ea:99:64:
         f4:04:fe:a9:e0:bc:98:0a:a4:52:6b:9c:5d:5b:9b:ce:95:11:
         2a:df
-----BEGIN CERTIFICATE-----
MIICRDCCAa2gAwIBAgIBATANBgkqhkiG9w0BAQUFADBIMQswCQYDVQQGEwJFUzEP
MA0GA1UECAwGTXVyY2lhMQwwCgYDVQQKDANVTVUxDTALBgNVBAsMBFNTVFQxCzAJ
BgNVBAMMAmNhMB4XDTE2MDExNzE4MDQwMFoXDTE3MDExNjE4MDQwMFowTzELMAkG
A1UEBhMCRVMxDzANBgNVBAgMBk11cmNpYTEMMAoGA1UECgwDVU1VMQ0wCwYDVQQL
DARTU1RUMRIwEAYDVQQDDAl3d3cuc3QudW0wXDANBgkqhkiG9w0BAQEFAANLADBI
AkEA2KqMAqSLlL+jyXfgfKz63nVr2BIkJ7Qb2Viox+rnXvbz4g8qvf5AngG+hbj6
kGc6Kjaz/MalcPQ3jOlFJv5RJwIDAQABo3sweTAJBgNVHRMEAjAAMCwGCWCGSAGG
+EIBDQQfFh1PcGVuU1NMIEdlbmVyYXRlZCBDZXJ0aWZpY2F0ZTAdBgNVHQ4EFgQU
MZp6taE+xS91ijP//jhBwY/LPiowHwYDVR0jBBgwFoAUpJT5zzhyAivXC2P9DLSN
9nitgvQwDQYJKoZIhvcNAQEFBQADgYEAg6JTcht6fNqIqN/pUcdXff4v5G7Eo+YP
hqbLlSDNjDxM+1RsbWf3Q7+9NS80GuhucxkF9QxF5RRW4guZYUxsiEBz0lOcBGpM
ZssAQrtfiU6MhvIRJNLN8cy4dW5xA4wPT1g6wmv4zQFi6plk9AT+qeC8mAqkUmuc
XVubzpURKt8=
-----END CERTIFICATE-----
