Certificate:
    Data:
        Version: 3 (0x2)
        Serial Number: 2 (0x2)
    Signature Algorithm: sha1WithRSAEncryption
        Issuer: C=ES, ST=Murcia, O=UMU, OU=SSTT, CN=ca
        Validity
            Not Before: Jan 17 18:30:09 2016 GMT
            Not After : Jan 16 18:30:09 2017 GMT
        Subject: C=ES, ST=Murcia, O=UMU, OU=SSTT, CN=www.st.um/emailAddress=usuario1@st.um
        Subject Public Key Info:
            Public Key Algorithm: rsaEncryption
                Public-Key: (512 bit)
                Modulus:
                    00:c5:e2:aa:d2:72:5f:ce:06:b1:d0:56:06:f4:b6:
                    73:f2:a0:0b:86:56:61:f6:ba:57:9f:c1:63:75:01:
                    39:c4:94:9e:08:b5:8d:87:f3:4a:a8:be:84:57:8c:
                    93:0c:4b:3a:ce:7c:d9:8a:e0:f8:0d:29:95:33:49:
                    e6:9c:5a:01:87
                Exponent: 65537 (0x10001)
        X509v3 extensions:
            X509v3 Basic Constraints: 
                CA:FALSE
            Netscape Comment: 
                OpenSSL Generated Certificate
            X509v3 Subject Key Identifier: 
                90:18:02:45:AD:95:37:C3:8A:1C:A5:6E:C5:1D:75:16:00:F7:AF:1D
            X509v3 Authority Key Identifier: 
                keyid:A4:94:F9:CF:38:72:02:2B:D7:0B:63:FD:0C:B4:8D:F6:78:AD:82:F4

    Signature Algorithm: sha1WithRSAEncryption
         20:96:fe:b3:17:e5:13:cc:e4:8f:c2:fb:c0:7a:33:2c:f2:fd:
         ec:91:d4:ab:55:dd:95:95:76:50:40:f1:86:56:62:b5:87:bc:
         72:2c:83:fa:65:64:34:be:70:80:14:be:59:00:8a:0a:5a:97:
         cb:cc:59:e6:36:22:7b:4b:1f:8b:ed:76:94:11:5a:09:77:d0:
         d3:ec:1c:3c:9c:18:cf:ff:d8:59:0f:22:cf:56:17:b1:da:80:
         2c:bd:cf:a5:81:ec:86:57:ca:a3:62:53:1d:e0:c2:6b:01:3d:
         37:7c:a1:22:a1:04:58:92:82:74:89:53:6c:40:7e:ea:3d:ee:
         70:27
-----BEGIN CERTIFICATE-----
MIICYzCCAcygAwIBAgIBAjANBgkqhkiG9w0BAQUFADBIMQswCQYDVQQGEwJFUzEP
MA0GA1UECAwGTXVyY2lhMQwwCgYDVQQKDANVTVUxDTALBgNVBAsMBFNTVFQxCzAJ
BgNVBAMMAmNhMB4XDTE2MDExNzE4MzAwOVoXDTE3MDExNjE4MzAwOVowbjELMAkG
A1UEBhMCRVMxDzANBgNVBAgMBk11cmNpYTEMMAoGA1UECgwDVU1VMQ0wCwYDVQQL
DARTU1RUMRIwEAYDVQQDDAl3d3cuc3QudW0xHTAbBgkqhkiG9w0BCQEWDnVzdWFy
aW8xQHN0LnVtMFwwDQYJKoZIhvcNAQEBBQADSwAwSAJBAMXiqtJyX84GsdBWBvS2
c/KgC4ZWYfa6V5/BY3UBOcSUngi1jYfzSqi+hFeMkwxLOs582Yrg+A0plTNJ5pxa
AYcCAwEAAaN7MHkwCQYDVR0TBAIwADAsBglghkgBhvhCAQ0EHxYdT3BlblNTTCBH
ZW5lcmF0ZWQgQ2VydGlmaWNhdGUwHQYDVR0OBBYEFJAYAkWtlTfDihylbsUddRYA
968dMB8GA1UdIwQYMBaAFKSU+c84cgIr1wtj/Qy0jfZ4rYL0MA0GCSqGSIb3DQEB
BQUAA4GBACCW/rMX5RPM5I/C+8B6Myzy/eyR1KtV3ZWVdlBA8YZWYrWHvHIsg/pl
ZDS+cIAUvlkAigpal8vMWeY2IntLH4vtdpQRWgl30NPsHDycGM//2FkPIs9WF7Ha
gCy9z6WB7IZXyqNiUx3gwmsBPTd8oSKhBFiSgnSJU2xAfuo97nAn
-----END CERTIFICATE-----
